; ModuleID = '5/671.c'
source_filename = "5/671.c"
target datalayout = "e-m:e-p270:32:32-p271:32:32-p272:64:64-i64:64-f80:128-n8:16:32:64-S128"
target triple = "x86_64-pc-linux-gnu"

@.str = private unnamed_addr constant [4 x i8] c"%lf\00", align 1
@.str.1 = private unnamed_addr constant [6 x i8] c"error\00", align 1
@.str.2 = private unnamed_addr constant [4 x i8] c"yes\00", align 1
@.str.3 = private unnamed_addr constant [3 x i8] c"no\00", align 1

; Function Attrs: noinline nounwind uwtable
define dso_local i32 @main() #0 {
  %1 = alloca i32, align 4
  %2 = alloca i32, align 4
  %3 = alloca i32, align 4
  %4 = alloca double, align 8
  %5 = alloca double, align 8
  %6 = alloca double, align 8
  %7 = alloca double, align 8
  %8 = alloca [500 x i8], align 16
  %9 = alloca [500 x i8], align 16
  %10 = alloca i8, align 1
  store i32 0, i32* %1, align 4
  store i32 0, i32* %3, align 4
  store double 0.000000e+00, double* %7, align 8
  %11 = call i32 (i8*, ...) @__isoc99_scanf(i8* getelementptr inbounds ([4 x i8], [4 x i8]* @.str, i64 0, i64 0), double* %4)
  %12 = call i32 @getchar()
  %13 = trunc i32 %12 to i8
  store i8 %13, i8* %10, align 1
  %14 = getelementptr inbounds [500 x i8], [500 x i8]* %8, i64 0, i64 0
  %15 = call i32 (i8*, ...) bitcast (i32 (...)* @gets to i32 (i8*, ...)*)(i8* %14)
  %16 = getelementptr inbounds [500 x i8], [500 x i8]* %9, i64 0, i64 0
  %17 = call i32 (i8*, ...) bitcast (i32 (...)* @gets to i32 (i8*, ...)*)(i8* %16)
  %18 = getelementptr inbounds [500 x i8], [500 x i8]* %8, i64 0, i64 0
  %19 = call i64 @strlen(i8* %18) #3
  %20 = uitofp i64 %19 to double
  store double %20, double* %5, align 8
  %21 = getelementptr inbounds [500 x i8], [500 x i8]* %9, i64 0, i64 0
  %22 = call i64 @strlen(i8* %21) #3
  %23 = uitofp i64 %22 to double
  store double %23, double* %6, align 8
  %24 = load double, double* %5, align 8
  %25 = load double, double* %6, align 8
  %26 = fcmp une double %24, %25
  br i1 %26, label %27, label %29

27:                                               ; preds = %0
  %28 = call i32 (i8*, ...) @printf(i8* getelementptr inbounds ([6 x i8], [6 x i8]* @.str.1, i64 0, i64 0))
  br label %29

29:                                               ; preds = %27, %0
  %30 = load double, double* %5, align 8
  %31 = load double, double* %6, align 8
  %32 = fcmp oeq double %30, %31
  br i1 %32, label %33, label %141

33:                                               ; preds = %29
  store i32 0, i32* %2, align 4
  br label %34

34:                                               ; preds = %98, %33
  %35 = load i32, i32* %2, align 4
  %36 = sitofp i32 %35 to double
  %37 = load double, double* %5, align 8
  %38 = fcmp olt double %36, %37
  br i1 %38, label %39, label %101

39:                                               ; preds = %34
  %40 = load i32, i32* %2, align 4
  %41 = sext i32 %40 to i64
  %42 = getelementptr inbounds [500 x i8], [500 x i8]* %8, i64 0, i64 %41
  %43 = load i8, i8* %42, align 1
  %44 = sext i8 %43 to i32
  %45 = icmp ne i32 %44, 65
  br i1 %45, label %46, label %67

46:                                               ; preds = %39
  %47 = load i32, i32* %2, align 4
  %48 = sext i32 %47 to i64
  %49 = getelementptr inbounds [500 x i8], [500 x i8]* %8, i64 0, i64 %48
  %50 = load i8, i8* %49, align 1
  %51 = sext i8 %50 to i32
  %52 = icmp ne i32 %51, 84
  br i1 %52, label %53, label %67

53:                                               ; preds = %46
  %54 = load i32, i32* %2, align 4
  %55 = sext i32 %54 to i64
  %56 = getelementptr inbounds [500 x i8], [500 x i8]* %8, i64 0, i64 %55
  %57 = load i8, i8* %56, align 1
  %58 = sext i8 %57 to i32
  %59 = icmp ne i32 %58, 67
  br i1 %59, label %60, label %67

60:                                               ; preds = %53
  %61 = load i32, i32* %2, align 4
  %62 = sext i32 %61 to i64
  %63 = getelementptr inbounds [500 x i8], [500 x i8]* %8, i64 0, i64 %62
  %64 = load i8, i8* %63, align 1
  %65 = sext i8 %64 to i32
  %66 = icmp ne i32 %65, 71
  br i1 %66, label %95, label %67

67:                                               ; preds = %60, %53, %46, %39
  %68 = load i32, i32* %2, align 4
  %69 = sext i32 %68 to i64
  %70 = getelementptr inbounds [500 x i8], [500 x i8]* %9, i64 0, i64 %69
  %71 = load i8, i8* %70, align 1
  %72 = sext i8 %71 to i32
  %73 = icmp ne i32 %72, 65
  br i1 %73, label %74, label %97

74:                                               ; preds = %67
  %75 = load i32, i32* %2, align 4
  %76 = sext i32 %75 to i64
  %77 = getelementptr inbounds [500 x i8], [500 x i8]* %9, i64 0, i64 %76
  %78 = load i8, i8* %77, align 1
  %79 = sext i8 %78 to i32
  %80 = icmp ne i32 %79, 84
  br i1 %80, label %81, label %97

81:                                               ; preds = %74
  %82 = load i32, i32* %2, align 4
  %83 = sext i32 %82 to i64
  %84 = getelementptr inbounds [500 x i8], [500 x i8]* %9, i64 0, i64 %83
  %85 = load i8, i8* %84, align 1
  %86 = sext i8 %85 to i32
  %87 = icmp ne i32 %86, 67
  br i1 %87, label %88, label %97

88:                                               ; preds = %81
  %89 = load i32, i32* %2, align 4
  %90 = sext i32 %89 to i64
  %91 = getelementptr inbounds [500 x i8], [500 x i8]* %9, i64 0, i64 %90
  %92 = load i8, i8* %91, align 1
  %93 = sext i8 %92 to i32
  %94 = icmp ne i32 %93, 71
  br i1 %94, label %95, label %97

95:                                               ; preds = %88, %60
  store i32 1, i32* %3, align 4
  %96 = call i32 (i8*, ...) @printf(i8* getelementptr inbounds ([6 x i8], [6 x i8]* @.str.1, i64 0, i64 0))
  br label %101

97:                                               ; preds = %88, %81, %74, %67
  br label %98

98:                                               ; preds = %97
  %99 = load i32, i32* %2, align 4
  %100 = add nsw i32 %99, 1
  store i32 %100, i32* %2, align 4
  br label %34

101:                                              ; preds = %95, %34
  %102 = load i32, i32* %3, align 4
  %103 = icmp eq i32 %102, 0
  br i1 %103, label %104, label %140

104:                                              ; preds = %101
  store i32 0, i32* %2, align 4
  br label %105

105:                                              ; preds = %126, %104
  %106 = load i32, i32* %2, align 4
  %107 = sitofp i32 %106 to double
  %108 = load double, double* %5, align 8
  %109 = fcmp olt double %107, %108
  br i1 %109, label %110, label %129

110:                                              ; preds = %105
  %111 = load i32, i32* %2, align 4
  %112 = sext i32 %111 to i64
  %113 = getelementptr inbounds [500 x i8], [500 x i8]* %8, i64 0, i64 %112
  %114 = load i8, i8* %113, align 1
  %115 = sext i8 %114 to i32
  %116 = load i32, i32* %2, align 4
  %117 = sext i32 %116 to i64
  %118 = getelementptr inbounds [500 x i8], [500 x i8]* %9, i64 0, i64 %117
  %119 = load i8, i8* %118, align 1
  %120 = sext i8 %119 to i32
  %121 = icmp eq i32 %115, %120
  br i1 %121, label %122, label %125

122:                                              ; preds = %110
  %123 = load double, double* %7, align 8
  %124 = fadd double %123, 1.000000e+00
  store double %124, double* %7, align 8
  br label %125

125:                                              ; preds = %122, %110
  br label %126

126:                                              ; preds = %125
  %127 = load i32, i32* %2, align 4
  %128 = add nsw i32 %127, 1
  store i32 %128, i32* %2, align 4
  br label %105

129:                                              ; preds = %105
  %130 = load double, double* %7, align 8
  %131 = load double, double* %5, align 8
  %132 = fdiv double %130, %131
  %133 = load double, double* %4, align 8
  %134 = fcmp ogt double %132, %133
  br i1 %134, label %135, label %137

135:                                              ; preds = %129
  %136 = call i32 (i8*, ...) @printf(i8* getelementptr inbounds ([4 x i8], [4 x i8]* @.str.2, i64 0, i64 0))
  br label %139

137:                                              ; preds = %129
  %138 = call i32 (i8*, ...) @printf(i8* getelementptr inbounds ([3 x i8], [3 x i8]* @.str.3, i64 0, i64 0))
  br label %139

139:                                              ; preds = %137, %135
  br label %140

140:                                              ; preds = %139, %101
  br label %141

141:                                              ; preds = %140, %29
  ret i32 0
}

declare dso_local i32 @__isoc99_scanf(i8*, ...) #1

declare dso_local i32 @getchar() #1

declare dso_local i32 @gets(...) #1

; Function Attrs: nounwind readonly
declare dso_local i64 @strlen(i8*) #2

declare dso_local i32 @printf(i8*, ...) #1


!llvm.module.flags = !{!0}
!llvm.ident = !{!1}

!0 = !{i32 1, !"wchar_size", i32 4}
!1 = !{!"clang version 10.0.0-4ubuntu1 "}
