; ModuleID = 'source-C-CXX/4/671.c'
source_filename = "source-C-CXX/4/671.c"
target datalayout = "e-m:e-p270:32:32-p271:32:32-p272:64:64-i64:64-f80:128-n8:16:32:64-S128"
target triple = "x86_64-pc-linux-gnu"

%struct._IO_FILE = type { i32, i8*, i8*, i8*, i8*, i8*, i8*, i8*, i8*, i8*, i8*, i8*, %struct._IO_marker*, %struct._IO_FILE*, i32, i32, i64, i16, i8, [1 x i8], i8*, i64, %struct._IO_codecvt*, %struct._IO_wide_data*, %struct._IO_FILE*, i8*, i64, i32, [20 x i8] }
%struct._IO_marker = type opaque
%struct._IO_codecvt = type opaque
%struct._IO_wide_data = type opaque

@.str = private unnamed_addr constant [4 x i8] c"%lf\00", align 1
@.str.1 = private unnamed_addr constant [6 x i8] c"error\00", align 1
@.str.2 = private unnamed_addr constant [4 x i8] c"yes\00", align 1
@.str.3 = private unnamed_addr constant [3 x i8] c"no\00", align 1
@stdin = external local_unnamed_addr global %struct._IO_FILE*, align 8

; Function Attrs: nounwind sspstrong uwtable
define dso_local i32 @main() local_unnamed_addr #0 {
  %1 = alloca double, align 8
  %2 = alloca [500 x i8], align 16
  %3 = alloca [500 x i8], align 16
  %4 = bitcast double* %1 to i8*
  call void @llvm.lifetime.start.p0i8(i64 8, i8* nonnull %4) #5
  %5 = getelementptr inbounds [500 x i8], [500 x i8]* %2, i64 0, i64 0
  call void @llvm.lifetime.start.p0i8(i64 500, i8* nonnull %5) #5
  %6 = getelementptr inbounds [500 x i8], [500 x i8]* %3, i64 0, i64 0
  call void @llvm.lifetime.start.p0i8(i64 500, i8* nonnull %6) #5
  %7 = call i32 (i8*, ...) @__isoc99_scanf(i8* getelementptr inbounds ([4 x i8], [4 x i8]* @.str, i64 0, i64 0), double* nonnull %1)
  %8 = load %struct._IO_FILE*, %struct._IO_FILE** @stdin, align 8, !tbaa !5
  %9 = call i32 @getc(%struct._IO_FILE* %8) #5
  %10 = call i32 (i8*, ...) bitcast (i32 (...)* @gets to i32 (i8*, ...)*)(i8* nonnull %5) #5
  %11 = call i32 (i8*, ...) bitcast (i32 (...)* @gets to i32 (i8*, ...)*)(i8* nonnull %6) #5
  %12 = call i64 @strlen(i8* noundef nonnull %5) #6
  %13 = uitofp i64 %12 to double
  %14 = call i64 @strlen(i8* noundef nonnull %6) #6
  %15 = uitofp i64 %14 to double
  %16 = fcmp une double %13, %15
  br i1 %16, label %17, label %19

17:                                               ; preds = %0
  %18 = call i32 (i8*, ...) @printf(i8* nonnull dereferenceable(1) getelementptr inbounds ([6 x i8], [6 x i8]* @.str.1, i64 0, i64 0))
  br label %19

19:                                               ; preds = %17, %0
  %20 = fcmp oeq double %13, %15
  br i1 %20, label %21, label %59

21:                                               ; preds = %19
  %22 = icmp eq i64 %12, 0
  br i1 %22, label %50, label %24

23:                                               ; preds = %31
  br i1 %22, label %50, label %36

24:                                               ; preds = %21, %31
  %25 = phi i64 [ %32, %31 ], [ 0, %21 ]
  %26 = getelementptr inbounds [500 x i8], [500 x i8]* %2, i64 0, i64 %25
  %27 = load i8, i8* %26, align 1, !tbaa !9
  switch i8 %27, label %56 [
    i8 65, label %28
    i8 84, label %28
    i8 67, label %28
    i8 71, label %28
  ]

28:                                               ; preds = %24, %24, %24, %24
  %29 = getelementptr inbounds [500 x i8], [500 x i8]* %3, i64 0, i64 %25
  %30 = load i8, i8* %29, align 1, !tbaa !9
  switch i8 %30, label %56 [
    i8 65, label %31
    i8 84, label %31
    i8 67, label %31
    i8 71, label %31
  ]

31:                                               ; preds = %28, %28, %28, %28
  %32 = add nuw i64 %25, 1
  %33 = trunc i64 %32 to i32
  %34 = sitofp i32 %33 to double
  %35 = fcmp olt double %34, %13
  br i1 %35, label %24, label %23, !llvm.loop !10

36:                                               ; preds = %23, %36
  %37 = phi i64 [ %46, %36 ], [ 0, %23 ]
  %38 = phi double [ %45, %36 ], [ 0.000000e+00, %23 ]
  %39 = getelementptr inbounds [500 x i8], [500 x i8]* %2, i64 0, i64 %37
  %40 = load i8, i8* %39, align 1, !tbaa !9
  %41 = getelementptr inbounds [500 x i8], [500 x i8]* %3, i64 0, i64 %37
  %42 = load i8, i8* %41, align 1, !tbaa !9
  %43 = icmp eq i8 %40, %42
  %44 = fadd double %38, 1.000000e+00
  %45 = select i1 %43, double %44, double %38
  %46 = add nuw i64 %37, 1
  %47 = trunc i64 %46 to i32
  %48 = sitofp i32 %47 to double
  %49 = fcmp olt double %48, %13
  br i1 %49, label %36, label %50, !llvm.loop !12

50:                                               ; preds = %36, %21, %23
  %51 = phi double [ 0.000000e+00, %23 ], [ 0.000000e+00, %21 ], [ %45, %36 ]
  %52 = fdiv double %51, %13
  %53 = load double, double* %1, align 8, !tbaa !13
  %54 = fcmp ogt double %52, %53
  %55 = select i1 %54, i8* getelementptr inbounds ([4 x i8], [4 x i8]* @.str.2, i64 0, i64 0), i8* getelementptr inbounds ([3 x i8], [3 x i8]* @.str.3, i64 0, i64 0)
  br label %56

56:                                               ; preds = %24, %28, %50
  %57 = phi i8* [ %55, %50 ], [ getelementptr inbounds ([6 x i8], [6 x i8]* @.str.1, i64 0, i64 0), %28 ], [ getelementptr inbounds ([6 x i8], [6 x i8]* @.str.1, i64 0, i64 0), %24 ]
  %58 = call i32 (i8*, ...) @printf(i8* nonnull dereferenceable(1) %57)
  br label %59

59:                                               ; preds = %56, %19
  call void @llvm.lifetime.end.p0i8(i64 500, i8* nonnull %6) #5
  call void @llvm.lifetime.end.p0i8(i64 500, i8* nonnull %5) #5
  call void @llvm.lifetime.end.p0i8(i64 8, i8* nonnull %4) #5
  ret i32 0
}

; Function Attrs: argmemonly mustprogress nofree nosync nounwind willreturn
declare void @llvm.lifetime.start.p0i8(i64 immarg, i8* nocapture) #1

; Function Attrs: nofree nounwind
declare noundef i32 @__isoc99_scanf(i8* nocapture noundef readonly, ...) local_unnamed_addr #2

declare i32 @gets(...) local_unnamed_addr #3

; Function Attrs: argmemonly mustprogress nofree nounwind readonly willreturn
declare i64 @strlen(i8* nocapture) local_unnamed_addr #4

; Function Attrs: nofree nounwind
declare noundef i32 @printf(i8* nocapture noundef readonly, ...) local_unnamed_addr #2

; Function Attrs: argmemonly mustprogress nofree nosync nounwind willreturn
declare void @llvm.lifetime.end.p0i8(i64 immarg, i8* nocapture) #1

; Function Attrs: nofree nounwind
declare noundef i32 @getc(%struct._IO_FILE* nocapture noundef) local_unnamed_addr #2


!llvm.module.flags = !{!0, !1, !2, !3}
!llvm.ident = !{!4}

!0 = !{i32 1, !"wchar_size", i32 4}
!1 = !{i32 7, !"PIC Level", i32 2}
!2 = !{i32 7, !"PIE Level", i32 2}
!3 = !{i32 7, !"uwtable", i32 1}
!4 = !{!"clang version 13.0.0"}
!5 = !{!6, !6, i64 0}
!6 = !{!"any pointer", !7, i64 0}
!7 = !{!"omnipotent char", !8, i64 0}
!8 = !{!"Simple C/C++ TBAA"}
!9 = !{!7, !7, i64 0}
!10 = distinct !{!10, !11}
!11 = !{!"llvm.loop.mustprogress"}
!12 = distinct !{!12, !11}
!13 = !{!14, !14, i64 0}
!14 = !{!"double", !7, i64 0}
